target datalayout = "e-m:e-p270:32:32-p271:32:32-p272:64:64-i64:64-i128:128-f80:128-n8:16:32:64-S128"
target triple = "x86_64-pc-linux-gnu"

%struct.AVFilterContext = type { ptr, ptr, ptr, ptr, ptr, i32, ptr, ptr, i32, ptr, ptr, i32, i32, ptr, ptr, ptr, ptr, i32, ptr, i32, i32 }
%struct.CurvesContext = type { ptr, i32, [4 x ptr], ptr, [4 x ptr], i32, ptr, [4 x i8], i32, ptr, i32, i32, i32, i32, i32, ptr }

; Function Attrs: cold nounwind optsize uwtable
define internal void @curves_uninit(ptr noundef %0) #0 {
  %2 = alloca ptr, align 8
  %3 = alloca i32, align 4
  %4 = alloca ptr, align 8
  store ptr %0, ptr %2, align 8, !tbaa !4
  call void @llvm.lifetime.start.p0(i64 4, ptr %3) #11
  call void @llvm.lifetime.start.p0(i64 8, ptr %4) #11
  %5 = load ptr, ptr %2, align 8, !tbaa !4
  %6 = getelementptr inbounds nuw %struct.AVFilterContext, ptr %5, i32 0, i32 9
  %7 = load ptr, ptr %6, align 8, !tbaa !9
  store ptr %7, ptr %4, align 8, !tbaa !22
  store i32 0, ptr %3, align 4, !tbaa !29
  br label %8

8:                                                ; preds = %17, %1
  %9 = load i32, ptr %3, align 4, !tbaa !29
  %10 = icmp slt i32 %9, 4
  br i1 %10, label %11, label %20

11:                                               ; preds = %8
  %12 = load ptr, ptr %4, align 8, !tbaa !22
  %13 = getelementptr inbounds nuw %struct.CurvesContext, ptr %12, i32 0, i32 4
  %14 = load i32, ptr %3, align 4, !tbaa !29
  %15 = sext i32 %14 to i64
  %16 = getelementptr inbounds [4 x ptr], ptr %13, i64 0, i64 %15
  call void @av_freep(ptr noundef %16)
  br label %17

17:                                               ; preds = %11
  %18 = load i32, ptr %3, align 4, !tbaa !29
  %19 = add nsw i32 %18, 1
  store i32 %19, ptr %3, align 4, !tbaa !29
  br label %8, !llvm.loop !40

20:                                               ; preds = %8
  call void @llvm.lifetime.end.p0(i64 8, ptr %4) #11
  call void @llvm.lifetime.end.p0(i64 4, ptr %3) #11
  ret void
}